target datalayout = "e-m:e-p270:32:32-p271:32:32-p272:64:64-i64:64-i128:128-f80:128-n8:16:32:64-S128"
target triple = "x86_64-pc-linux-gnu"

%struct.ForEachState = type { ptr, i32 }
%struct.List = type { i32, i32, i32, ptr, [0 x %union.ListCell] }
%union.ListCell = type { ptr }
%struct.RelOptInfo = type { i32, i32, ptr, double, i8, i8, i8, ptr, ptr, ptr, ptr, ptr, ptr, ptr, ptr, ptr, ptr, i32, i32, i32, i16, i16, ptr, ptr, ptr, ptr, ptr, ptr, ptr, ptr, i32, double, double, ptr, ptr, ptr, i32, i32, i32, i32, i8, ptr, ptr, ptr, ptr, ptr, %struct.QualCost, i32, ptr, i8, i8, ptr, ptr, ptr, ptr, i32, ptr, i8, ptr, ptr, ptr, ptr, ptr, ptr }
%struct.QualCost = type { double, double }
%struct.Node = type { i32 }
%struct.ParamPathInfo = type { i32, ptr, double, ptr, ptr }

; Function Attrs: inlinehint nounwind uwtable
define internal ptr @newNode(i64 noundef %0, i32 noundef %1) #2 {
  %3 = alloca i64, align 8
  %4 = alloca i32, align 4
  %5 = alloca ptr, align 8
  store i64 %0, ptr %3, align 8
  store i32 %1, ptr %4, align 4
  call void @llvm.lifetime.start.p0(i64 8, ptr %5) #6
  %6 = load i64, ptr %3, align 8
  %7 = call ptr @palloc0(i64 noundef %6)
  store ptr %7, ptr %5, align 8
  %8 = load i32, ptr %4, align 4
  %9 = load ptr, ptr %5, align 8
  %10 = getelementptr inbounds nuw %struct.Node, ptr %9, i32 0, i32 0
  store i32 %8, ptr %10, align 4
  %11 = load ptr, ptr %5, align 8
  call void @llvm.lifetime.end.p0(i64 8, ptr %5) #6
  ret ptr %11
}

; Function Attrs: nounwind uwtable
define dso_local ptr @find_param_path_info(ptr noundef %0, ptr noundef %1) #0 {
  %3 = alloca ptr, align 8
  %4 = alloca ptr, align 8
  %5 = alloca ptr, align 8
  %6 = alloca ptr, align 8
  %7 = alloca %struct.ForEachState, align 8
  %8 = alloca i32, align 4
  %9 = alloca ptr, align 8
  store ptr %0, ptr %4, align 8
  store ptr %1, ptr %5, align 8
  call void @llvm.lifetime.start.p0(i64 8, ptr %6) #6
  call void @llvm.lifetime.start.p0(i64 16, ptr %7) #6
  %10 = getelementptr inbounds nuw %struct.ForEachState, ptr %7, i32 0, i32 0
  %11 = load ptr, ptr %4, align 8
  %12 = getelementptr inbounds nuw %struct.RelOptInfo, ptr %11, i32 0, i32 9
  %13 = load ptr, ptr %12, align 8
  store ptr %13, ptr %10, align 8
  %14 = getelementptr inbounds nuw %struct.ForEachState, ptr %7, i32 0, i32 1
  store i32 0, ptr %14, align 8
  %15 = getelementptr i8, ptr %7, i64 12
  call void @llvm.memset.p0.i64(ptr align 4 %15, i8 0, i64 4, i1 false)
  br label %16

16:                                               ; preds = %56, %2
  %17 = getelementptr inbounds nuw %struct.ForEachState, ptr %7, i32 0, i32 0
  %18 = load ptr, ptr %17, align 8
  %19 = icmp ne ptr %18, null
  br i1 %19, label %20, label %37

20:                                               ; preds = %16
  %21 = getelementptr inbounds nuw %struct.ForEachState, ptr %7, i32 0, i32 1
  %22 = load i32, ptr %21, align 8
  %23 = getelementptr inbounds nuw %struct.ForEachState, ptr %7, i32 0, i32 0
  %24 = load ptr, ptr %23, align 8
  %25 = getelementptr inbounds nuw %struct.List, ptr %24, i32 0, i32 1
  %26 = load i32, ptr %25, align 4
  %27 = icmp slt i32 %22, %26
  br i1 %27, label %28, label %37

28:                                               ; preds = %20
  %29 = getelementptr inbounds nuw %struct.ForEachState, ptr %7, i32 0, i32 0
  %30 = load ptr, ptr %29, align 8
  %31 = getelementptr inbounds nuw %struct.List, ptr %30, i32 0, i32 3
  %32 = load ptr, ptr %31, align 8
  %33 = getelementptr inbounds nuw %struct.ForEachState, ptr %7, i32 0, i32 1
  %34 = load i32, ptr %33, align 8
  %35 = sext i32 %34 to i64
  %36 = getelementptr inbounds %union.ListCell, ptr %32, i64 %35
  store ptr %36, ptr %6, align 8
  br label %38

37:                                               ; preds = %20, %16
  store ptr null, ptr %6, align 8
  br label %38

38:                                               ; preds = %37, %28
  %39 = phi i32 [ 1, %28 ], [ 0, %37 ]
  %40 = icmp ne i32 %39, 0
  br i1 %40, label %42, label %41

41:                                               ; preds = %38
  store i32 2, ptr %8, align 4
  br label %60

42:                                               ; preds = %38
  call void @llvm.lifetime.start.p0(i64 8, ptr %9) #6
  %43 = load ptr, ptr %6, align 8
  %44 = load ptr, ptr %43, align 8
  store ptr %44, ptr %9, align 8
  %45 = load ptr, ptr %9, align 8
  %46 = getelementptr inbounds nuw %struct.ParamPathInfo, ptr %45, i32 0, i32 1
  %47 = load ptr, ptr %46, align 8
  %48 = load ptr, ptr %5, align 8
  %49 = call zeroext i1 @bms_equal(ptr noundef %47, ptr noundef %48)
  br i1 %49, label %50, label %52

50:                                               ; preds = %42
  %51 = load ptr, ptr %9, align 8
  store ptr %51, ptr %3, align 8
  store i32 1, ptr %8, align 4
  br label %53

52:                                               ; preds = %42
  store i32 0, ptr %8, align 4
  br label %53

53:                                               ; preds = %52, %50
  call void @llvm.lifetime.end.p0(i64 8, ptr %9) #6
  %54 = load i32, ptr %8, align 4
  switch i32 %54, label %60 [
    i32 0, label %55
  ]

55:                                               ; preds = %53
  br label %56

56:                                               ; preds = %55
  %57 = getelementptr inbounds nuw %struct.ForEachState, ptr %7, i32 0, i32 1
  %58 = load i32, ptr %57, align 8
  %59 = add i32 %58, 1
  store i32 %59, ptr %57, align 8
  br label %16, !llvm.loop !18

60:                                               ; preds = %53, %41
  call void @llvm.lifetime.end.p0(i64 16, ptr %7) #6
  %61 = load i32, ptr %8, align 4
  switch i32 %61, label %63 [
    i32 2, label %62
  ]

62:                                               ; preds = %60
  store ptr null, ptr %3, align 8
  store i32 1, ptr %8, align 4
  br label %63

63:                                               ; preds = %62, %60
  call void @llvm.lifetime.end.p0(i64 8, ptr %6) #6
  %64 = load ptr, ptr %3, align 8
  ret ptr %64
}

; Function Attrs: nounwind uwtable
define dso_local ptr @get_appendrel_parampathinfo(ptr noundef %0, ptr noundef %1) #0 {
  %3 = alloca ptr, align 8
  %4 = alloca ptr, align 8
  %5 = alloca ptr, align 8
  %6 = alloca ptr, align 8
  %7 = alloca i32, align 4
  store ptr %0, ptr %4, align 8
  store ptr %1, ptr %5, align 8
  call void @llvm.lifetime.start.p0(i64 8, ptr %6) #6
  %8 = load ptr, ptr %5, align 8
  %9 = icmp eq ptr %8, null
  br i1 %9, label %10, label %11

10:                                               ; preds = %2
  store ptr null, ptr %3, align 8
  store i32 1, ptr %7, align 4
  br label %37

11:                                               ; preds = %2
  %12 = load ptr, ptr %4, align 8
  %13 = load ptr, ptr %5, align 8
  %14 = call ptr @find_param_path_info(ptr noundef %12, ptr noundef %13)
  store ptr %14, ptr %6, align 8
  %15 = icmp ne ptr %14, null
  br i1 %15, label %16, label %18

16:                                               ; preds = %11
  %17 = load ptr, ptr %6, align 8
  store ptr %17, ptr %3, align 8
  store i32 1, ptr %7, align 4
  br label %37

18:                                               ; preds = %11
  %19 = call ptr @newNode(i64 noundef 40, i32 noundef 277)
  store ptr %19, ptr %6, align 8
  %20 = load ptr, ptr %5, align 8
  %21 = load ptr, ptr %6, align 8
  %22 = getelementptr inbounds nuw %struct.ParamPathInfo, ptr %21, i32 0, i32 1
  store ptr %20, ptr %22, align 8
  %23 = load ptr, ptr %6, align 8
  %24 = getelementptr inbounds nuw %struct.ParamPathInfo, ptr %23, i32 0, i32 2
  store double 0.000000e+00, ptr %24, align 8
  %25 = load ptr, ptr %6, align 8
  %26 = getelementptr inbounds nuw %struct.ParamPathInfo, ptr %25, i32 0, i32 3
  store ptr null, ptr %26, align 8
  %27 = load ptr, ptr %6, align 8
  %28 = getelementptr inbounds nuw %struct.ParamPathInfo, ptr %27, i32 0, i32 4
  store ptr null, ptr %28, align 8
  %29 = load ptr, ptr %4, align 8
  %30 = getelementptr inbounds nuw %struct.RelOptInfo, ptr %29, i32 0, i32 9
  %31 = load ptr, ptr %30, align 8
  %32 = load ptr, ptr %6, align 8
  %33 = call ptr @lappend(ptr noundef %31, ptr noundef %32)
  %34 = load ptr, ptr %4, align 8
  %35 = getelementptr inbounds nuw %struct.RelOptInfo, ptr %34, i32 0, i32 9
  store ptr %33, ptr %35, align 8
  %36 = load ptr, ptr %6, align 8
  store ptr %36, ptr %3, align 8
  store i32 1, ptr %7, align 4
  br label %37

37:                                               ; preds = %18, %16, %10
  call void @llvm.lifetime.end.p0(i64 8, ptr %6) #6
  %38 = load ptr, ptr %3, align 8
  ret ptr %38
}