; Function Attrs: nounwind uwtable
define dso_local ptr @get_appendrel_parampathinfo(ptr noundef captures(none) %0, ptr noundef %1) local_unnamed_addr #0 {
  %3 = icmp eq ptr %1, null
  br i1 %3, label %find_param_path_info.exit, label %4

4:                                                ; preds = %2
  %5 = getelementptr inbounds nuw i8, ptr %0, i64 48
  %6 = load ptr, ptr %5, align 8
  %7 = getelementptr inbounds nuw i8, ptr %6, i64 4
  %.not.i = icmp eq ptr %6, null
  br i1 %.not.i, label %.loopexit, label %.lr.ph.i

.lr.ph.i:                                         ; preds = %4
  %8 = getelementptr inbounds nuw i8, ptr %6, i64 16
  %9 = load i32, ptr %7, align 4
  %10 = icmp sgt i32 %9, 0
  br i1 %10, label %.lr.ph31.i, label %.loopexit

11:                                               ; preds = %.lr.ph31.i
  %indvars.iv.next.i = add nuw nsw i64 %indvars.iv.i, 1
  %12 = load i32, ptr %7, align 4
  %13 = sext i32 %12 to i64
  %14 = icmp slt i64 %indvars.iv.next.i, %13
  br i1 %14, label %.lr.ph31.i, label %.loopexit

.lr.ph31.i:                                       ; preds = %.lr.ph.i, %11
  %indvars.iv.i = phi i64 [ %indvars.iv.next.i, %11 ], [ 0, %.lr.ph.i ]
  %15 = load ptr, ptr %8, align 8
  %16 = getelementptr inbounds nuw %union.ListCell, ptr %15, i64 %indvars.iv.i
  %17 = load ptr, ptr %16, align 8
  %18 = getelementptr inbounds nuw i8, ptr %17, i64 8
  %19 = load ptr, ptr %18, align 8
  %20 = tail call zeroext i1 @bms_equal(ptr noundef %19, ptr noundef nonnull %1) #7
  br i1 %20, label %find_param_path_info.exit, label %11

.loopexit:                                        ; preds = %11, %4, %.lr.ph.i
  %21 = tail call noundef ptr @palloc0(i64 noundef 40) #7
  store i32 277, ptr %21, align 4
  %22 = getelementptr inbounds nuw i8, ptr %21, i64 8
  store ptr %1, ptr %22, align 8
  %23 = getelementptr inbounds nuw i8, ptr %21, i64 16
  tail call void @llvm.memset.p0.i64(ptr noundef nonnull align 8 dereferenceable(24) %23, i8 0, i64 24, i1 false)
  %24 = load ptr, ptr %5, align 8
  %25 = tail call ptr @lappend(ptr noundef %24, ptr noundef nonnull %21) #7
  store ptr %25, ptr %5, align 8
  br label %find_param_path_info.exit

find_param_path_info.exit:                        ; preds = %.lr.ph31.i, %2, %.loopexit
  %.0 = phi ptr [ %21, %.loopexit ], [ null, %2 ], [ %17, %.lr.ph31.i ]
  ret ptr %.0
}